; Function Attrs: nofree norecurse nosync nounwind memory(argmem: readwrite) uwtable
define internal void @blend_phoenix_14bit(ptr noundef readonly captures(none) %0, i64 noundef %1, ptr noundef readonly captures(none) %2, i64 noundef %3, ptr noundef writeonly captures(none) %4, i64 noundef %5, i64 noundef %6, i64 noundef %7, ptr noundef readonly captures(none) %8, ptr readnone captures(none) %9) #6 {
  %11 = getelementptr inbounds nuw i8, ptr %8, i64 8
  %12 = load double, ptr %11, align 8, !tbaa !70
  %13 = fptrunc nsz double %12 to float
  %14 = lshr i64 %5, 1
  %15 = lshr i64 %1, 1
  %16 = lshr i64 %3, 1
  %17 = icmp sgt i64 %7, 0
  %18 = icmp sgt i64 %6, 0
  %or.cond = and i1 %17, %18
  br i1 %or.cond, label %.preheader.us, label %._crit_edge58

.preheader.us:                                    ; preds = %10, %._crit_edge.us
  %indvars.iv62 = phi i64 [ %indvars.iv.next63, %._crit_edge.us ], [ 0, %10 ]
  %.04256.us = phi ptr [ %35, %._crit_edge.us ], [ %4, %10 ]
  %.04355.us = phi ptr [ %37, %._crit_edge.us ], [ %2, %10 ]
  %.04454.us = phi ptr [ %36, %._crit_edge.us ], [ %0, %10 ]
  br label %19

19:                                               ; preds = %.preheader.us, %19
  %indvars.iv = phi i64 [ 0, %.preheader.us ], [ %indvars.iv.next, %19 ]
  %20 = getelementptr inbounds nuw i16, ptr %.04454.us, i64 %indvars.iv
  %21 = load i16, ptr %20, align 2, !tbaa !85
  %22 = uitofp i16 %21 to float
  %23 = getelementptr inbounds nuw i16, ptr %.04355.us, i64 %indvars.iv
  %24 = load i16, ptr %23, align 2, !tbaa !85
  %..us = tail call i16 @llvm.umin.i16(i16 %21, i16 %24)
  %25 = zext i16 %..us to i32
  %.in50.us = tail call i16 @llvm.umax.i16(i16 %21, i16 %24)
  %26 = zext i16 %.in50.us to i32
  %27 = zext i16 %21 to i32
  %28 = add nuw nsw i32 %25, 16383
  %29 = add nuw nsw i32 %27, %26
  %30 = sub nsw i32 %28, %29
  %31 = sitofp i32 %30 to float
  %32 = tail call nsz float @llvm.fmuladd.f32(float %31, float %13, float %22)
  %33 = fptoui float %32 to i16
  %34 = getelementptr inbounds nuw i16, ptr %.04256.us, i64 %indvars.iv
  store i16 %33, ptr %34, align 2, !tbaa !85
  %indvars.iv.next = add nuw nsw i64 %indvars.iv, 1
  %exitcond.not = icmp eq i64 %indvars.iv.next, %6
  br i1 %exitcond.not, label %._crit_edge.us, label %19, !llvm.loop !456

._crit_edge.us:                                   ; preds = %19
  %35 = getelementptr inbounds nuw i16, ptr %.04256.us, i64 %14
  %36 = getelementptr inbounds nuw i16, ptr %.04454.us, i64 %15
  %37 = getelementptr inbounds nuw i16, ptr %.04355.us, i64 %16
  %indvars.iv.next63 = add nuw nsw i64 %indvars.iv62, 1
  %exitcond65.not = icmp eq i64 %indvars.iv.next63, %7
  br i1 %exitcond65.not, label %._crit_edge58, label %.preheader.us, !llvm.loop !457

._crit_edge58:                                    ; preds = %._crit_edge.us, %10
  ret void
}